; Function Attrs: nounwind uwtable
define internal noundef i32 @config_props(ptr noundef readonly captures(none) %0) #1 {
  %2 = getelementptr inbounds nuw i8, ptr %0, i64 16
  %3 = load ptr, ptr %2, align 8, !tbaa !27
  %4 = getelementptr inbounds nuw i8, ptr %3, i64 72
  %5 = load ptr, ptr %4, align 8, !tbaa !4
  %6 = getelementptr inbounds nuw i8, ptr %0, i64 40
  %7 = load i32, ptr %6, align 8, !tbaa !39
  %8 = mul nsw i32 %7, 5
  %9 = sdiv i32 %8, 48
  %10 = getelementptr inbounds nuw i8, ptr %5, i64 44
  store i32 %9, ptr %10, align 4, !tbaa !44
  %11 = getelementptr inbounds nuw i8, ptr %0, i64 44
  %12 = load i32, ptr %11, align 4, !tbaa !40
  %13 = getelementptr inbounds nuw i8, ptr %5, i64 8
  %14 = load i32, ptr %13, align 8, !tbaa !41
  tail call void (ptr, i32, ptr, ...) @av_log(ptr noundef %3, i32 noundef 48, ptr noundef nonnull @.str.8, i32 noundef %7, i32 noundef %12, i32 noundef %9, i32 noundef %14) #6
  ret i32 0
}